target datalayout = "e-m:e-p270:32:32-p271:32:32-p272:64:64-i64:64-i128:128-f80:128-n8:16:32:64-S128"
target triple = "x86_64-pc-linux-gnu"

%struct.expert_field = type { i32, i32 }
%struct._packet_info = type { ptr, ptr, i32, i32, %struct.nstime_t, %struct.nstime_t, %struct.nstime_t, i8, ptr, ptr, ptr, ptr, %struct._address, %struct._address, %struct._address, %struct._address, %struct._address, %struct._address, i32, ptr, i8, [3 x i8], %struct.anon, i32, i32, i32, i32, ptr, i8, ptr, ptr, i16, i16, i32, i32, i16, i32, i32, ptr, ptr, ptr, i8, i8, i16, i16, i16, i32, i16, i16, ptr, ptr, ptr, ptr, ptr, i32, i32 }
%struct.nstime_t = type { i64, i32 }
%struct._address = type { i32, i32, ptr, ptr }
%struct.anon = type { i8, [3 x i8] }
%struct._dof_api_data = type { ptr, ptr, ptr, ptr, ptr }
%struct._dof_transport_session = type { i32, i32, %struct.nstime_t, i8, i32, %struct.nstime_t, i8, i8 }
%struct._frame_data = type <{ i32, i32, i32, i32, i32, [4 x i8], i64, ptr, ptr, ptr, i8, i16, [5 x i8], %struct.nstime_t, %struct.nstime_t, i32, i32 }>

@.str.12 = private unnamed_addr constant [29 x i8] c"%s:%u: failed assertion \22%s\22\00", align 1
@.str.13 = private unnamed_addr constant [29 x i8] c"epan/dissectors/packet-dof.c\00", align 1
@.str.14 = private unnamed_addr constant [23 x i8] c"api_data != ((void*)0)\00", align 1
@.str.22 = private unnamed_addr constant [9 x i8] c"Included\00", align 1
@.str.23 = private unnamed_addr constant [8 x i8] c"Default\00", align 1
@.str.24 = private unnamed_addr constant [7 x i8] c"Header\00", align 1
@.str.25 = private unnamed_addr constant [7 x i8] c"DPPv%u\00", align 1
@proto_2008_1_dpp = internal global i32 0, align 4
@.str.26 = private unnamed_addr constant [48 x i8] c"DOF Presentation Protocol Version %u, Flags: %s\00", align 1
@ett_2008_1_dpp = internal global i32 0, align 4
@ett_2008_1_dpp_1_header = internal global i32 0, align 4
@hf_2008_1_dpp_1_flag = internal global i32 0, align 4
@hf_2008_1_dpp_1_version = internal global i32 0, align 4
@.str.27 = private unnamed_addr constant [20 x i8] c"DNP/DPP Negotiation\00", align 1
@ei_dof_6_timeout = internal global %struct.expert_field zeroinitializer, align 4
@dof_dpp_dissectors = internal global ptr null, align 8

; Function Attrs: null_pointer_is_valid sspstrong uwtable
define internal i32 @dof_dissect_dpp_common(ptr noundef %0, ptr noundef %1, ptr noundef %2, ptr noundef %3) #0 {
  %5 = alloca i32, align 4
  %6 = alloca ptr, align 8
  %7 = alloca ptr, align 8
  %8 = alloca ptr, align 8
  %9 = alloca ptr, align 8
  %10 = alloca ptr, align 8
  %11 = alloca i32, align 4
  %12 = alloca i8, align 1
  %13 = alloca i8, align 1
  %14 = alloca i8, align 1
  %15 = alloca ptr, align 8
  %16 = alloca ptr, align 8
  %17 = alloca ptr, align 8
  %18 = alloca i32, align 4
  store ptr %0, ptr %6, align 8
  store ptr %1, ptr %7, align 8
  store ptr %2, ptr %8, align 8
  store ptr %3, ptr %9, align 8
  call void @llvm.lifetime.start.p0(i64 8, ptr %10) #19
  %19 = load ptr, ptr %9, align 8
  store ptr %19, ptr %10, align 8
  call void @llvm.lifetime.start.p0(i64 4, ptr %11) #19
  store i32 0, ptr %11, align 4
  %20 = load ptr, ptr %10, align 8
  %21 = icmp ne ptr %20, null
  br i1 %21, label %22, label %23

22:                                               ; preds = %4
  br label %25

23:                                               ; preds = %4
  call void (ptr, ...) @proto_report_dissector_bug(ptr noundef @.str.12, ptr noundef @.str.13, i32 noundef 5352, ptr noundef @.str.14) #20
  unreachable

24:                                               ; No predecessors!
  br label %25

25:                                               ; preds = %24, %22
  %26 = load ptr, ptr %7, align 8
  %27 = getelementptr inbounds nuw %struct._packet_info, ptr %26, i32 0, i32 1
  %28 = load ptr, ptr %27, align 8
  call void @col_clear(ptr noundef %28, i32 noundef 25)
  call void @llvm.lifetime.start.p0(i64 1, ptr %12) #19
  %29 = load ptr, ptr %6, align 8
  %30 = load i32, ptr %11, align 4
  %31 = call zeroext i8 @tvb_get_uint8(ptr noundef %29, i32 noundef %30)
  store i8 %31, ptr %12, align 1
  call void @llvm.lifetime.start.p0(i64 1, ptr %13) #19
  %32 = load i8, ptr %12, align 1
  %33 = zext i8 %32 to i32
  %34 = and i32 %33, 127
  %35 = trunc i32 %34 to i8
  store i8 %35, ptr %13, align 1
  call void @llvm.lifetime.start.p0(i64 1, ptr %14) #19
  %36 = load i8, ptr %12, align 1
  %37 = zext i8 %36 to i32
  %38 = and i32 %37, 128
  %39 = trunc i32 %38 to i8
  store i8 %39, ptr %14, align 1
  call void @llvm.lifetime.start.p0(i64 8, ptr %15) #19
  call void @llvm.lifetime.start.p0(i64 8, ptr %16) #19
  call void @llvm.lifetime.start.p0(i64 8, ptr %17) #19
  %40 = load ptr, ptr %7, align 8
  %41 = getelementptr inbounds nuw %struct._packet_info, ptr %40, i32 0, i32 1
  %42 = load ptr, ptr %41, align 8
  %43 = load i8, ptr %13, align 1
  %44 = zext i8 %43 to i32
  call void (ptr, i32, ptr, ...) @col_add_fstr(ptr noundef %42, i32 noundef 35, ptr noundef @.str.25, i32 noundef %44)
  %45 = load ptr, ptr %8, align 8
  %46 = load i32, ptr @proto_2008_1_dpp, align 4
  %47 = load ptr, ptr %6, align 8
  %48 = load i32, ptr %11, align 4
  %49 = load i8, ptr %13, align 1
  %50 = zext i8 %49 to i32
  %51 = load i8, ptr %14, align 1
  %52 = zext i8 %51 to i32
  %53 = icmp ne i32 %52, 0
  %54 = select i1 %53, ptr @.str.22, ptr @.str.23
  %55 = call ptr (ptr, i32, ptr, i32, i32, ptr, ...) @proto_tree_add_protocol_format(ptr noundef %45, i32 noundef %46, ptr noundef %47, i32 noundef %48, i32 noundef 0, ptr noundef @.str.26, i32 noundef %50, ptr noundef %54)
  store ptr %55, ptr %15, align 8
  %56 = load ptr, ptr %15, align 8
  %57 = load i32, ptr @ett_2008_1_dpp, align 4
  %58 = call ptr @proto_item_add_subtree(ptr noundef %56, i32 noundef %57)
  store ptr %58, ptr %16, align 8
  %59 = load ptr, ptr %16, align 8
  %60 = load ptr, ptr %6, align 8
  %61 = load i32, ptr %11, align 4
  %62 = load i32, ptr @ett_2008_1_dpp_1_header, align 4
  %63 = call ptr @proto_tree_add_subtree(ptr noundef %59, ptr noundef %60, i32 noundef %61, i32 noundef 1, i32 noundef %62, ptr noundef null, ptr noundef @.str.24)
  store ptr %63, ptr %17, align 8
  %64 = load ptr, ptr %17, align 8
  %65 = load i32, ptr @hf_2008_1_dpp_1_flag, align 4
  %66 = load ptr, ptr %6, align 8
  %67 = load i32, ptr %11, align 4
  %68 = call ptr @proto_tree_add_item(ptr noundef %64, i32 noundef %65, ptr noundef %66, i32 noundef %67, i32 noundef 1, i32 noundef 0)
  %69 = load ptr, ptr %17, align 8
  %70 = load i32, ptr @hf_2008_1_dpp_1_version, align 4
  %71 = load ptr, ptr %6, align 8
  %72 = load i32, ptr %11, align 4
  %73 = call ptr @proto_tree_add_item(ptr noundef %69, i32 noundef %70, ptr noundef %71, i32 noundef %72, i32 noundef 1, i32 noundef 0)
  %74 = load i32, ptr %11, align 4
  %75 = add i32 %74, 1
  store i32 %75, ptr %11, align 4
  %76 = load i32, ptr %11, align 4
  %77 = load ptr, ptr %6, align 8
  %78 = call i32 @tvb_reported_length(ptr noundef %77)
  %79 = icmp eq i32 %76, %78
  br i1 %79, label %80, label %143

80:                                               ; preds = %25
  %81 = load ptr, ptr %15, align 8
  %82 = load i32, ptr %11, align 4
  call void @proto_item_set_len(ptr noundef %81, i32 noundef %82)
  %83 = load ptr, ptr %10, align 8
  %84 = icmp ne ptr %83, null
  br i1 %84, label %87, label %85

85:                                               ; preds = %80
  %86 = load i32, ptr %11, align 4
  store i32 %86, ptr %5, align 4
  store i32 1, ptr %18, align 4
  br label %163

87:                                               ; preds = %80
  %88 = load ptr, ptr %10, align 8
  %89 = getelementptr inbounds nuw %struct._dof_api_data, ptr %88, i32 0, i32 0
  %90 = load ptr, ptr %89, align 8
  %91 = getelementptr inbounds nuw %struct._dof_transport_session, ptr %90, i32 0, i32 6
  %92 = load i8, ptr %91, align 8, !range !9, !noundef !10
  %93 = trunc i8 %92 to i1
  br i1 %93, label %94, label %142

94:                                               ; preds = %87
  %95 = load ptr, ptr %7, align 8
  %96 = getelementptr inbounds nuw %struct._packet_info, ptr %95, i32 0, i32 1
  %97 = load ptr, ptr %96, align 8
  call void @col_append_str(ptr noundef %97, i32 noundef 25, ptr noundef @.str.27)
  %98 = load ptr, ptr %7, align 8
  %99 = getelementptr inbounds nuw %struct._packet_info, ptr %98, i32 0, i32 8
  %100 = load ptr, ptr %99, align 8
  %101 = getelementptr inbounds nuw %struct._frame_data, ptr %100, i32 0, i32 11
  %102 = load i16, ptr %101, align 1
  %103 = lshr i16 %102, 3
  %104 = and i16 %103, 1
  %105 = zext i16 %104 to i32
  %106 = icmp ne i32 %105, 0
  br i1 %106, label %107, label %140

107:                                              ; preds = %94
  %108 = load ptr, ptr %10, align 8
  %109 = getelementptr inbounds nuw %struct._dof_api_data, ptr %108, i32 0, i32 0
  %110 = load ptr, ptr %109, align 8
  %111 = getelementptr inbounds nuw %struct._dof_transport_session, ptr %110, i32 0, i32 3
  %112 = load i8, ptr %111, align 8, !range !9, !noundef !10
  %113 = trunc i8 %112 to i1
  br i1 %113, label %114, label %140

114:                                              ; preds = %107
  %115 = load ptr, ptr %10, align 8
  %116 = getelementptr inbounds nuw %struct._dof_api_data, ptr %115, i32 0, i32 0
  %117 = load ptr, ptr %116, align 8
  %118 = getelementptr inbounds nuw %struct._dof_transport_session, ptr %117, i32 0, i32 4
  %119 = load i32, ptr %118, align 4
  %120 = icmp eq i32 %119, 0
  br i1 %120, label %136, label %121

121:                                              ; preds = %114
  %122 = load ptr, ptr %10, align 8
  %123 = getelementptr inbounds nuw %struct._dof_api_data, ptr %122, i32 0, i32 0
  %124 = load ptr, ptr %123, align 8
  %125 = getelementptr inbounds nuw %struct._dof_transport_session, ptr %124, i32 0, i32 5
  %126 = getelementptr inbounds nuw %struct.nstime_t, ptr %125, i32 0, i32 0
  %127 = load i64, ptr %126, align 8
  %128 = load ptr, ptr %10, align 8
  %129 = getelementptr inbounds nuw %struct._dof_api_data, ptr %128, i32 0, i32 0
  %130 = load ptr, ptr %129, align 8
  %131 = getelementptr inbounds nuw %struct._dof_transport_session, ptr %130, i32 0, i32 2
  %132 = getelementptr inbounds nuw %struct.nstime_t, ptr %131, i32 0, i32 0
  %133 = load i64, ptr %132, align 8
  %134 = sub i64 %127, %133
  %135 = icmp sgt i64 %134, 10
  br i1 %135, label %136, label %140

136:                                              ; preds = %121, %114
  %137 = load ptr, ptr %7, align 8
  %138 = load ptr, ptr %15, align 8
  %139 = call ptr @expert_add_info(ptr noundef %137, ptr noundef %138, ptr noundef @ei_dof_6_timeout)
  br label %140

140:                                              ; preds = %136, %121, %107, %94
  %141 = load i32, ptr %11, align 4
  store i32 %141, ptr %5, align 4
  store i32 1, ptr %18, align 4
  br label %163

142:                                              ; preds = %87
  br label %143

143:                                              ; preds = %142, %25
  %144 = load ptr, ptr @dof_dpp_dissectors, align 8
  %145 = load i8, ptr %13, align 1
  %146 = zext i8 %145 to i32
  %147 = load ptr, ptr %6, align 8
  %148 = load ptr, ptr %7, align 8
  %149 = load ptr, ptr %16, align 8
  %150 = load ptr, ptr %9, align 8
  %151 = call i32 @dissector_try_uint_with_data(ptr noundef %144, i32 noundef %146, ptr noundef %147, ptr noundef %148, ptr noundef %149, i1 noundef zeroext false, ptr noundef %150)
  %152 = icmp ne i32 %151, 0
  br i1 %152, label %153, label %162

153:                                              ; preds = %143
  %154 = load ptr, ptr %7, align 8
  %155 = getelementptr inbounds nuw %struct._packet_info, ptr %154, i32 0, i32 1
  %156 = load ptr, ptr %155, align 8
  call void @col_set_fence(ptr noundef %156, i32 noundef 35)
  %157 = load ptr, ptr %7, align 8
  %158 = getelementptr inbounds nuw %struct._packet_info, ptr %157, i32 0, i32 1
  %159 = load ptr, ptr %158, align 8
  call void @col_set_fence(ptr noundef %159, i32 noundef 25)
  %160 = load ptr, ptr %6, align 8
  %161 = call i32 @tvb_reported_length(ptr noundef %160)
  store i32 %161, ptr %5, align 4
  store i32 1, ptr %18, align 4
  br label %163

162:                                              ; preds = %143
  store i32 0, ptr %18, align 4
  br label %163

163:                                              ; preds = %162, %153, %140, %85
  call void @llvm.lifetime.end.p0(i64 8, ptr %17) #19
  call void @llvm.lifetime.end.p0(i64 8, ptr %16) #19
  call void @llvm.lifetime.end.p0(i64 8, ptr %15) #19
  call void @llvm.lifetime.end.p0(i64 1, ptr %14) #19
  call void @llvm.lifetime.end.p0(i64 1, ptr %13) #19
  call void @llvm.lifetime.end.p0(i64 1, ptr %12) #19
  %164 = load i32, ptr %18, align 4
  switch i32 %164, label %166 [
    i32 0, label %165
  ]

165:                                              ; preds = %163
  store i32 0, ptr %5, align 4
  store i32 1, ptr %18, align 4
  br label %166

166:                                              ; preds = %165, %163
  call void @llvm.lifetime.end.p0(i64 4, ptr %11) #19
  call void @llvm.lifetime.end.p0(i64 8, ptr %10) #19
  %167 = load i32, ptr %5, align 4
  ret i32 %167
}