; Function Attrs: null_pointer_is_valid sspstrong uwtable
define internal fastcc i32 @dof_dissect_dpp_common(ptr noundef %0, ptr noundef %1, ptr noundef %2, ptr noundef nonnull %3) unnamed_addr #0 {
  %5 = getelementptr inbounds nuw i8, ptr %1, i64 8
  %6 = load ptr, ptr %5, align 8
  tail call void @col_clear(ptr noundef %6, i32 noundef 25)
  %7 = tail call zeroext i8 @tvb_get_uint8(ptr noundef %0, i32 noundef 0)
  %8 = and i8 %7, 127
  %9 = load ptr, ptr %5, align 8
  %10 = zext nneg i8 %8 to i32
  tail call void (ptr, i32, ptr, ...) @col_add_fstr(ptr noundef %9, i32 noundef 35, ptr noundef nonnull @.str.25, i32 noundef %10)
  %11 = load i32, ptr @proto_2008_1_dpp, align 4
  %.not = icmp sgt i8 %7, -1
  %12 = select i1 %.not, ptr @.str.23, ptr @.str.22
  %13 = tail call ptr (ptr, i32, ptr, i32, i32, ptr, ...) @proto_tree_add_protocol_format(ptr noundef %2, i32 noundef %11, ptr noundef %0, i32 noundef 0, i32 noundef 0, ptr noundef nonnull @.str.26, i32 noundef %10, ptr noundef nonnull %12)
  %14 = load i32, ptr @ett_2008_1_dpp, align 4
  %15 = tail call ptr @proto_item_add_subtree(ptr noundef %13, i32 noundef %14)
  %16 = load i32, ptr @ett_2008_1_dpp_1_header, align 4
  %17 = tail call ptr @proto_tree_add_subtree(ptr noundef %15, ptr noundef %0, i32 noundef 0, i32 noundef 1, i32 noundef %16, ptr noundef null, ptr noundef nonnull @.str.24)
  %18 = load i32, ptr @hf_2008_1_dpp_1_flag, align 4
  %19 = tail call ptr @proto_tree_add_item(ptr noundef %17, i32 noundef %18, ptr noundef %0, i32 noundef 0, i32 noundef 1, i32 noundef 0)
  %20 = load i32, ptr @hf_2008_1_dpp_1_version, align 4
  %21 = tail call ptr @proto_tree_add_item(ptr noundef %17, i32 noundef %20, ptr noundef %0, i32 noundef 0, i32 noundef 1, i32 noundef 0)
  %22 = tail call i32 @tvb_reported_length(ptr noundef %0)
  %23 = icmp eq i32 %22, 1
  br i1 %23, label %24, label %54

24:                                               ; preds = %4
  tail call void @proto_item_set_len(ptr noundef %13, i32 noundef 1)
  %25 = load ptr, ptr %3, align 8
  %26 = getelementptr inbounds nuw i8, ptr %25, i64 48
  %27 = load i8, ptr %26, align 8, !range !10, !noundef !11
  %28 = trunc nuw i8 %27 to i1
  br i1 %28, label %29, label %54

29:                                               ; preds = %24
  %30 = load ptr, ptr %5, align 8
  tail call void @col_append_str(ptr noundef %30, i32 noundef 25, ptr noundef nonnull @.str.27)
  %31 = getelementptr inbounds nuw i8, ptr %1, i64 80
  %32 = load ptr, ptr %31, align 8
  %33 = getelementptr inbounds nuw i8, ptr %32, i64 57
  %34 = load i16, ptr %33, align 1
  %35 = and i16 %34, 8
  %.not53 = icmp eq i16 %35, 0
  br i1 %.not53, label %.thread, label %36

36:                                               ; preds = %29
  %37 = load ptr, ptr %3, align 8
  %38 = getelementptr inbounds nuw i8, ptr %37, i64 24
  %39 = load i8, ptr %38, align 8, !range !10, !noundef !11
  %40 = trunc nuw i8 %39 to i1
  br i1 %40, label %41, label %.thread

41:                                               ; preds = %36
  %42 = getelementptr inbounds nuw i8, ptr %37, i64 28
  %43 = load i32, ptr %42, align 4
  %44 = icmp eq i32 %43, 0
  br i1 %44, label %52, label %45

45:                                               ; preds = %41
  %46 = getelementptr inbounds nuw i8, ptr %37, i64 32
  %47 = load i64, ptr %46, align 8
  %48 = getelementptr inbounds nuw i8, ptr %37, i64 8
  %49 = load i64, ptr %48, align 8
  %50 = sub i64 %47, %49
  %51 = icmp sgt i64 %50, 10
  br i1 %51, label %52, label %.thread

52:                                               ; preds = %45, %41
  %53 = tail call ptr @expert_add_info(ptr noundef %1, ptr noundef %13, ptr noundef nonnull @ei_dof_6_timeout)
  br label %.thread

54:                                               ; preds = %24, %4
  %55 = load ptr, ptr @dof_dpp_dissectors, align 8
  %56 = tail call i32 @dissector_try_uint_with_data(ptr noundef %55, i32 noundef %10, ptr noundef %0, ptr noundef %1, ptr noundef %15, i1 noundef zeroext false, ptr noundef nonnull %3)
  %.not52 = icmp eq i32 %56, 0
  br i1 %.not52, label %.thread, label %57

57:                                               ; preds = %54
  %58 = load ptr, ptr %5, align 8
  tail call void @col_set_fence(ptr noundef %58, i32 noundef 35)
  %59 = load ptr, ptr %5, align 8
  tail call void @col_set_fence(ptr noundef %59, i32 noundef 25)
  %60 = tail call i32 @tvb_reported_length(ptr noundef %0)
  br label %.thread

.thread:                                          ; preds = %29, %36, %45, %52, %57, %54
  %61 = phi i32 [ 0, %54 ], [ 1, %29 ], [ 1, %36 ], [ 1, %45 ], [ 1, %52 ], [ %60, %57 ]
  ret i32 %61
}